; ModuleID = '56/1421.c'
source_filename = "56/1421.c"
target datalayout = "e-m:e-p270:32:32-p271:32:32-p272:64:64-i64:64-f80:128-n8:16:32:64-S128"
target triple = "x86_64-pc-linux-gnu"

@.str = private unnamed_addr constant [3 x i8] c"%d\00", align 1

; Function Attrs: noinline nounwind uwtable
define dso_local i32 @main() #0 {
  %1 = alloca i32, align 4
  %2 = alloca i32, align 4
  %3 = alloca i32, align 4
  %4 = alloca i32, align 4
  %5 = alloca i32, align 4
  %6 = alloca i32, align 4
  %7 = alloca i32, align 4
  %8 = alloca i32, align 4
  store i32 0, i32* %1, align 4
  %9 = call i32 (i8*, ...) @__isoc99_scanf(i8* getelementptr inbounds ([3 x i8], [3 x i8]* @.str, i64 0, i64 0), i32* %2)
  %10 = load i32, i32* %2, align 4
  %11 = sdiv i32 %10, 10000
  store i32 %11, i32* %3, align 4
  %12 = load i32, i32* %2, align 4
  %13 = sdiv i32 %12, 1000
  %14 = load i32, i32* %3, align 4
  %15 = mul nsw i32 10, %14
  %16 = sub nsw i32 %13, %15
  store i32 %16, i32* %4, align 4
  %17 = load i32, i32* %2, align 4
  %18 = sdiv i32 %17, 100
  %19 = load i32, i32* %3, align 4
  %20 = mul nsw i32 100, %19
  %21 = sub nsw i32 %18, %20
  %22 = load i32, i32* %4, align 4
  %23 = mul nsw i32 10, %22
  %24 = sub nsw i32 %21, %23
  store i32 %24, i32* %5, align 4
  %25 = load i32, i32* %2, align 4
  %26 = sdiv i32 %25, 10
  %27 = load i32, i32* %3, align 4
  %28 = mul nsw i32 1000, %27
  %29 = sub nsw i32 %26, %28
  %30 = load i32, i32* %4, align 4
  %31 = mul nsw i32 100, %30
  %32 = sub nsw i32 %29, %31
  %33 = load i32, i32* %5, align 4
  %34 = mul nsw i32 10, %33
  %35 = sub nsw i32 %32, %34
  store i32 %35, i32* %6, align 4
  %36 = load i32, i32* %2, align 4
  %37 = load i32, i32* %3, align 4
  %38 = mul nsw i32 10000, %37
  %39 = sub nsw i32 %36, %38
  %40 = load i32, i32* %4, align 4
  %41 = mul nsw i32 1000, %40
  %42 = sub nsw i32 %39, %41
  %43 = load i32, i32* %5, align 4
  %44 = mul nsw i32 100, %43
  %45 = sub nsw i32 %42, %44
  %46 = load i32, i32* %6, align 4
  %47 = mul nsw i32 10, %46
  %48 = sub nsw i32 %45, %47
  store i32 %48, i32* %7, align 4
  %49 = load i32, i32* %3, align 4
  %50 = icmp ne i32 %49, 0
  br i1 %50, label %51, label %67

51:                                               ; preds = %0
  %52 = load i32, i32* %7, align 4
  %53 = mul nsw i32 10000, %52
  %54 = load i32, i32* %6, align 4
  %55 = mul nsw i32 1000, %54
  %56 = add nsw i32 %53, %55
  %57 = load i32, i32* %5, align 4
  %58 = mul nsw i32 100, %57
  %59 = add nsw i32 %56, %58
  %60 = load i32, i32* %4, align 4
  %61 = mul nsw i32 10, %60
  %62 = add nsw i32 %59, %61
  %63 = load i32, i32* %3, align 4
  %64 = add nsw i32 %62, %63
  store i32 %64, i32* %8, align 4
  %65 = load i32, i32* %8, align 4
  %66 = call i32 (i8*, ...) @printf(i8* getelementptr inbounds ([3 x i8], [3 x i8]* @.str, i64 0, i64 0), i32 %65)
  br label %112

67:                                               ; preds = %0
  %68 = load i32, i32* %4, align 4
  %69 = icmp ne i32 %68, 0
  br i1 %69, label %70, label %83

70:                                               ; preds = %67
  %71 = load i32, i32* %7, align 4
  %72 = mul nsw i32 1000, %71
  %73 = load i32, i32* %6, align 4
  %74 = mul nsw i32 100, %73
  %75 = add nsw i32 %72, %74
  %76 = load i32, i32* %5, align 4
  %77 = mul nsw i32 10, %76
  %78 = add nsw i32 %75, %77
  %79 = load i32, i32* %4, align 4
  %80 = add nsw i32 %78, %79
  store i32 %80, i32* %8, align 4
  %81 = load i32, i32* %8, align 4
  %82 = call i32 (i8*, ...) @printf(i8* getelementptr inbounds ([3 x i8], [3 x i8]* @.str, i64 0, i64 0), i32 %81)
  br label %111

83:                                               ; preds = %67
  %84 = load i32, i32* %5, align 4
  %85 = icmp ne i32 %84, 0
  br i1 %85, label %86, label %96

86:                                               ; preds = %83
  %87 = load i32, i32* %7, align 4
  %88 = mul nsw i32 100, %87
  %89 = load i32, i32* %6, align 4
  %90 = mul nsw i32 10, %89
  %91 = add nsw i32 %88, %90
  %92 = load i32, i32* %5, align 4
  %93 = add nsw i32 %91, %92
  store i32 %93, i32* %8, align 4
  %94 = load i32, i32* %8, align 4
  %95 = call i32 (i8*, ...) @printf(i8* getelementptr inbounds ([3 x i8], [3 x i8]* @.str, i64 0, i64 0), i32 %94)
  br label %110

96:                                               ; preds = %83
  %97 = load i32, i32* %6, align 4
  %98 = icmp ne i32 %97, 0
  br i1 %98, label %99, label %106

99:                                               ; preds = %96
  %100 = load i32, i32* %7, align 4
  %101 = mul nsw i32 10, %100
  %102 = load i32, i32* %6, align 4
  %103 = add nsw i32 %101, %102
  store i32 %103, i32* %8, align 4
  %104 = load i32, i32* %8, align 4
  %105 = call i32 (i8*, ...) @printf(i8* getelementptr inbounds ([3 x i8], [3 x i8]* @.str, i64 0, i64 0), i32 %104)
  br label %109

106:                                              ; preds = %96
  %107 = load i32, i32* %7, align 4
  %108 = call i32 (i8*, ...) @printf(i8* getelementptr inbounds ([3 x i8], [3 x i8]* @.str, i64 0, i64 0), i32 %107)
  br label %109

109:                                              ; preds = %106, %99
  br label %110

110:                                              ; preds = %109, %86
  br label %111

111:                                              ; preds = %110, %70
  br label %112

112:                                              ; preds = %111, %51
  ret i32 0
}

declare dso_local i32 @__isoc99_scanf(i8*, ...) #1

declare dso_local i32 @printf(i8*, ...) #1


!llvm.module.flags = !{!0}
!llvm.ident = !{!1}

!0 = !{i32 1, !"wchar_size", i32 4}
!1 = !{!"clang version 10.0.0-4ubuntu1 "}
